; ModuleID = '38/1268.c'
source_filename = "38/1268.c"
target datalayout = "e-m:e-p270:32:32-p271:32:32-p272:64:64-i64:64-f80:128-n8:16:32:64-S128"
target triple = "x86_64-pc-linux-gnu"

@.str = private unnamed_addr constant [3 x i8] c"%d\00", align 1
@.str.1 = private unnamed_addr constant [4 x i8] c"%lf\00", align 1
@.str.2 = private unnamed_addr constant [6 x i8] c"%.5f\0A\00", align 1

; Function Attrs: noinline nounwind uwtable
define dso_local i32 @main(i32 %0, i8** %1) #0 {
  %3 = alloca i32, align 4
  %4 = alloca i32, align 4
  %5 = alloca i8**, align 8
  %6 = alloca i32, align 4
  %7 = alloca i32, align 4
  %8 = alloca i32, align 4
  %9 = alloca i32, align 4
  %10 = alloca [100 x double], align 16
  %11 = alloca double, align 8
  %12 = alloca double, align 8
  %13 = alloca double*, align 8
  store i32 0, i32* %3, align 4
  store i32 %0, i32* %4, align 4
  store i8** %1, i8*** %5, align 8
  store double 0.000000e+00, double* %11, align 8
  store double 0.000000e+00, double* %12, align 8
  %14 = call i32 (i8*, ...) @__isoc99_scanf(i8* getelementptr inbounds ([3 x i8], [3 x i8]* @.str, i64 0, i64 0), i32* %6)
  store i32 0, i32* %8, align 4
  br label %15

15:                                               ; preds = %90, %2
  %16 = load i32, i32* %8, align 4
  %17 = load i32, i32* %6, align 4
  %18 = icmp slt i32 %16, %17
  br i1 %18, label %19, label %93

19:                                               ; preds = %15
  %20 = call i32 (i8*, ...) @__isoc99_scanf(i8* getelementptr inbounds ([3 x i8], [3 x i8]* @.str, i64 0, i64 0), i32* %7)
  %21 = getelementptr inbounds [100 x double], [100 x double]* %10, i64 0, i64 0
  store double* %21, double** %13, align 8
  store i32 0, i32* %9, align 4
  br label %22

22:                                               ; preds = %32, %19
  %23 = load i32, i32* %9, align 4
  %24 = load i32, i32* %7, align 4
  %25 = icmp slt i32 %23, %24
  br i1 %25, label %26, label %35

26:                                               ; preds = %22
  %27 = load double*, double** %13, align 8
  %28 = load i32, i32* %9, align 4
  %29 = sext i32 %28 to i64
  %30 = getelementptr inbounds double, double* %27, i64 %29
  %31 = call i32 (i8*, ...) @__isoc99_scanf(i8* getelementptr inbounds ([4 x i8], [4 x i8]* @.str.1, i64 0, i64 0), double* %30)
  br label %32

32:                                               ; preds = %26
  %33 = load i32, i32* %9, align 4
  %34 = add nsw i32 %33, 1
  store i32 %34, i32* %9, align 4
  br label %22

35:                                               ; preds = %22
  store i32 0, i32* %9, align 4
  br label %36

36:                                               ; preds = %48, %35
  %37 = load i32, i32* %9, align 4
  %38 = load i32, i32* %7, align 4
  %39 = icmp slt i32 %37, %38
  br i1 %39, label %40, label %51

40:                                               ; preds = %36
  %41 = load double*, double** %13, align 8
  %42 = load i32, i32* %9, align 4
  %43 = sext i32 %42 to i64
  %44 = getelementptr inbounds double, double* %41, i64 %43
  %45 = load double, double* %44, align 8
  %46 = load double, double* %11, align 8
  %47 = fadd double %46, %45
  store double %47, double* %11, align 8
  br label %48

48:                                               ; preds = %40
  %49 = load i32, i32* %9, align 4
  %50 = add nsw i32 %49, 1
  store i32 %50, i32* %9, align 4
  br label %36

51:                                               ; preds = %36
  %52 = load i32, i32* %7, align 4
  %53 = sitofp i32 %52 to double
  %54 = load double, double* %11, align 8
  %55 = fdiv double %54, %53
  store double %55, double* %11, align 8
  store i32 0, i32* %9, align 4
  br label %56

56:                                               ; preds = %78, %51
  %57 = load i32, i32* %9, align 4
  %58 = load i32, i32* %7, align 4
  %59 = icmp slt i32 %57, %58
  br i1 %59, label %60, label %81

60:                                               ; preds = %56
  %61 = load double*, double** %13, align 8
  %62 = load i32, i32* %9, align 4
  %63 = sext i32 %62 to i64
  %64 = getelementptr inbounds double, double* %61, i64 %63
  %65 = load double, double* %64, align 8
  %66 = load double, double* %11, align 8
  %67 = fsub double %65, %66
  %68 = load double*, double** %13, align 8
  %69 = load i32, i32* %9, align 4
  %70 = sext i32 %69 to i64
  %71 = getelementptr inbounds double, double* %68, i64 %70
  %72 = load double, double* %71, align 8
  %73 = load double, double* %11, align 8
  %74 = fsub double %72, %73
  %75 = fmul double %67, %74
  %76 = load double, double* %12, align 8
  %77 = fadd double %76, %75
  store double %77, double* %12, align 8
  br label %78

78:                                               ; preds = %60
  %79 = load i32, i32* %9, align 4
  %80 = add nsw i32 %79, 1
  store i32 %80, i32* %9, align 4
  br label %56

81:                                               ; preds = %56
  %82 = load i32, i32* %7, align 4
  %83 = sitofp i32 %82 to double
  %84 = load double, double* %12, align 8
  %85 = fdiv double %84, %83
  store double %85, double* %12, align 8
  %86 = load double, double* %12, align 8
  %87 = call double @pow(double %86, double 5.000000e-01) #3
  store double %87, double* %12, align 8
  %88 = load double, double* %12, align 8
  %89 = call i32 (i8*, ...) @printf(i8* getelementptr inbounds ([6 x i8], [6 x i8]* @.str.2, i64 0, i64 0), double %88)
  store double 0.000000e+00, double* %11, align 8
  store double 0.000000e+00, double* %12, align 8
  br label %90

90:                                               ; preds = %81
  %91 = load i32, i32* %8, align 4
  %92 = add nsw i32 %91, 1
  store i32 %92, i32* %8, align 4
  br label %15

93:                                               ; preds = %15
  ret i32 0
}

declare dso_local i32 @__isoc99_scanf(i8*, ...) #1

; Function Attrs: nounwind
declare dso_local double @pow(double, double) #2

declare dso_local i32 @printf(i8*, ...) #1


!llvm.module.flags = !{!0}
!llvm.ident = !{!1}

!0 = !{i32 1, !"wchar_size", i32 4}
!1 = !{!"clang version 10.0.0-4ubuntu1 "}
